(i__main__
Customer
p0
(dp1
S'info'
p2
NsS'Name'
p3
S'admin'
p4
sS'DOB'
p5
S'55/55/5555'
p6
sS'phno'
p7
S'345365235'
p8
sS'CustomerData'
p9
NsS'amount'
p10
F1000.0
sS'Address'
p11
S'reddy layout'
p12
sS'Phno'
p13
S'1782632892164'
p14
sS'Password'
p15
S'admin'
p16
sS'Email'
p17
S'hahha@noob.com'
p18
sb.