(i__main__
Customer
p0
(dp1
S'info'
p2
NsS'Name'
p3
S'noob'
p4
sS'DOB'
p5
S'd'
p6
sS'CustomerData'
p7
NsS'amount'
p8
I0
sS'File'
p9
NsS'Address'
p10
S'a'
p11
sS'Phno'
p12
S'f'
p13
sS'path'
p14
NsS'Password'
p15
S'aa'
p16
sS'Email'
p17
g11
sb.