(i__main__
Customer
p0
(dp1
S'info'
p2
NsS'Name'
p3
S'TestUser'
p4
sS'loantype'
p5
NsS'DOB'
p6
S'12/34/5678'
p7
sS'EMI'
p8
NsS'age'
p9
S'40'
p10
sS'CustomerData'
p11
NsS'job'
p12
NsS'amount'
p13
I0
sS'Address'
p14
S'address'
p15
sS'Phno'
p16
S'1234567890'
p17
sS'Password'
p18
S'password'
p19
sS'max_loan_amt'
p20
NsS'Email'
p21
S'test@mail.com'
p22
sb.